target datalayout = "e-m:e-p270:32:32-p271:32:32-p272:64:64-i64:64-i128:128-f80:128-n8:16:32:64-S128"
target triple = "x86_64-pc-linux-gnu"

%struct.png_struct_def = type { [1 x %struct.__jmp_buf_tag], ptr, ptr, i64, ptr, ptr, ptr, ptr, ptr, ptr, ptr, ptr, ptr, i8, i8, i32, i32, i32, i32, %struct.z_stream_s, ptr, i32, i32, i32, i32, i32, i32, i32, i32, i32, i32, i32, i32, i32, i32, i32, i32, i32, i32, i32, i32, i64, i32, i32, i32, ptr, ptr, ptr, ptr, i64, i32, i32, ptr, i16, i32, i16, i8, i8, i8, i8, i8, i8, i8, i8, i8, i8, i8, i8, i8, i8, i8, i16, i8, i32, %struct.png_color_16_struct, %struct.png_color_16_struct, ptr, i32, i32, i32, i32, ptr, ptr, ptr, ptr, ptr, ptr, %struct.png_color_8_struct, %struct.png_color_8_struct, ptr, %struct.png_color_16_struct, ptr, ptr, ptr, ptr, ptr, ptr, ptr, ptr, ptr, i32, i32, i64, i64, i64, i64, i32, i32, ptr, ptr, i32, [29 x i8], i32, ptr, ptr, i32, i32, ptr, i8, i8, i16, i16, ptr, i32, i8, ptr, ptr, ptr, ptr, ptr, ptr, ptr, i8, i32, i32, i32, i64, %struct.png_unknown_chunk_t, i64, ptr, i64, i32, i32, ptr, [4 x ptr], %struct.png_colorspace }
%struct.__jmp_buf_tag = type { [8 x i64], i32, %struct.__sigset_t }
%struct.__sigset_t = type { [16 x i64] }
%struct.z_stream_s = type { ptr, i32, i64, ptr, i32, i64, ptr, ptr, ptr, ptr, ptr, i32, i64, i64 }
%struct.png_color_8_struct = type { i8, i8, i8, i8, i8 }
%struct.png_color_16_struct = type { i8, i16, i16, i16, i16 }
%struct.png_unknown_chunk_t = type { [5 x i8], ptr, i64, i8 }
%struct.png_colorspace = type { i32, %struct.png_xy, %struct.png_XYZ, i16, i16 }
%struct.png_xy = type { i32, i32, i32, i32, i32, i32, i32, i32 }
%struct.png_XYZ = type { i32, i32, i32, i32, i32, i32, i32, i32, i32 }

@.str = private unnamed_addr constant [56 x i8] c"png_set_filler is invalid for low bit depth gray output\00", align 1
@.str.1 = private unnamed_addr constant [41 x i8] c"png_set_filler: inappropriate color type\00", align 1

; Function Attrs: nounwind uwtable
define void @png_set_filler(ptr noalias noundef %0, i32 noundef %1, i32 noundef %2) #0 {
  %4 = alloca ptr, align 8
  %5 = alloca i32, align 4
  %6 = alloca i32, align 4
  store ptr %0, ptr %4, align 8
  store i32 %1, ptr %5, align 4
  store i32 %2, ptr %6, align 4
  %7 = load ptr, ptr %4, align 8
  %8 = icmp eq ptr %7, null
  br i1 %8, label %9, label %10

9:                                                ; preds = %3
  br label %60

10:                                               ; preds = %3
  %11 = load ptr, ptr %4, align 8
  %12 = getelementptr inbounds %struct.png_struct_def, ptr %11, i32 0, i32 15
  %13 = load i32, ptr %12, align 4
  %14 = and i32 %13, 32768
  %15 = icmp ne i32 %14, 0
  br i1 %15, label %16, label %21

16:                                               ; preds = %10
  %17 = load i32, ptr %5, align 4
  %18 = trunc i32 %17 to i16
  %19 = load ptr, ptr %4, align 8
  %20 = getelementptr inbounds %struct.png_struct_def, ptr %19, i32 0, i32 71
  store i16 %18, ptr %20, align 2
  br label %43

21:                                               ; preds = %10
  %22 = load ptr, ptr %4, align 8
  %23 = getelementptr inbounds %struct.png_struct_def, ptr %22, i32 0, i32 61
  %24 = load i8, ptr %23, align 1
  %25 = zext i8 %24 to i32
  switch i32 %25, label %40 [
    i32 2, label %26
    i32 0, label %29
  ]

26:                                               ; preds = %21
  %27 = load ptr, ptr %4, align 8
  %28 = getelementptr inbounds %struct.png_struct_def, ptr %27, i32 0, i32 66
  store i8 4, ptr %28, align 4
  br label %42

29:                                               ; preds = %21
  %30 = load ptr, ptr %4, align 8
  %31 = getelementptr inbounds %struct.png_struct_def, ptr %30, i32 0, i32 62
  %32 = load i8, ptr %31, align 8
  %33 = zext i8 %32 to i32
  %34 = icmp sge i32 %33, 8
  br i1 %34, label %35, label %38

35:                                               ; preds = %29
  %36 = load ptr, ptr %4, align 8
  %37 = getelementptr inbounds %struct.png_struct_def, ptr %36, i32 0, i32 66
  store i8 2, ptr %37, align 4
  br label %42

38:                                               ; preds = %29
  %39 = load ptr, ptr %4, align 8
  call void @png_app_error(ptr noundef %39, ptr noundef @.str)
  br label %60

40:                                               ; preds = %21
  %41 = load ptr, ptr %4, align 8
  call void @png_app_error(ptr noundef %41, ptr noundef @.str.1)
  br label %60

42:                                               ; preds = %35, %26
  br label %43

43:                                               ; preds = %42, %16
  %44 = load ptr, ptr %4, align 8
  %45 = getelementptr inbounds %struct.png_struct_def, ptr %44, i32 0, i32 17
  %46 = load i32, ptr %45, align 4
  %47 = or i32 %46, 32768
  store i32 %47, ptr %45, align 4
  %48 = load i32, ptr %6, align 4
  %49 = icmp eq i32 %48, 1
  br i1 %49, label %50, label %55

50:                                               ; preds = %43
  %51 = load ptr, ptr %4, align 8
  %52 = getelementptr inbounds %struct.png_struct_def, ptr %51, i32 0, i32 16
  %53 = load i32, ptr %52, align 8
  %54 = or i32 %53, 128
  store i32 %54, ptr %52, align 8
  br label %60

55:                                               ; preds = %43
  %56 = load ptr, ptr %4, align 8
  %57 = getelementptr inbounds %struct.png_struct_def, ptr %56, i32 0, i32 16
  %58 = load i32, ptr %57, align 8
  %59 = and i32 %58, -129
  store i32 %59, ptr %57, align 8
  br label %60

60:                                               ; preds = %55, %50, %40, %38, %9
  ret void
}

; Function Attrs: nounwind uwtable
define void @png_set_add_alpha(ptr noalias noundef %0, i32 noundef %1, i32 noundef %2) #0 {
  %4 = alloca ptr, align 8
  %5 = alloca i32, align 4
  %6 = alloca i32, align 4
  store ptr %0, ptr %4, align 8
  store i32 %1, ptr %5, align 4
  store i32 %2, ptr %6, align 4
  %7 = load ptr, ptr %4, align 8
  %8 = icmp eq ptr %7, null
  br i1 %8, label %9, label %10

9:                                                ; preds = %3
  br label %24

10:                                               ; preds = %3
  %11 = load ptr, ptr %4, align 8
  %12 = load i32, ptr %5, align 4
  %13 = load i32, ptr %6, align 4
  call void @png_set_filler(ptr noundef %11, i32 noundef %12, i32 noundef %13)
  %14 = load ptr, ptr %4, align 8
  %15 = getelementptr inbounds %struct.png_struct_def, ptr %14, i32 0, i32 17
  %16 = load i32, ptr %15, align 4
  %17 = and i32 %16, 32768
  %18 = icmp ne i32 %17, 0
  br i1 %18, label %19, label %24

19:                                               ; preds = %10
  %20 = load ptr, ptr %4, align 8
  %21 = getelementptr inbounds %struct.png_struct_def, ptr %20, i32 0, i32 17
  %22 = load i32, ptr %21, align 4
  %23 = or i32 %22, 16777216
  store i32 %23, ptr %21, align 4
  br label %24

24:                                               ; preds = %19, %10, %9
  ret void
}