; Function Attrs: nounwind uwtable
define void @png_set_add_alpha(ptr noalias noundef %0, i32 noundef %1, i32 noundef %2) local_unnamed_addr #2 {
  %4 = icmp eq ptr %0, null
  br i1 %4, label %41, label %5

5:                                                ; preds = %3
  %6 = getelementptr inbounds i8, ptr %0, i64 300
  %7 = load i32, ptr %6, align 4, !alias.scope !4
  %8 = and i32 %7, 32768
  %.not.i = icmp eq i32 %8, 0
  br i1 %.not.i, label %12, label %9

9:                                                ; preds = %5
  %10 = trunc i32 %1 to i16
  %11 = getelementptr inbounds i8, ptr %0, i64 626
  store i16 %10, ptr %11, align 2, !alias.scope !4
  br label %25

12:                                               ; preds = %5
  %13 = getelementptr inbounds i8, ptr %0, i64 615
  %14 = load i8, ptr %13, align 1, !alias.scope !4
  switch i8 %14, label %24 [
    i8 2, label %15
    i8 0, label %17
  ]

15:                                               ; preds = %12
  %16 = getelementptr inbounds i8, ptr %0, i64 620
  store i8 4, ptr %16, align 4, !alias.scope !4
  br label %25

17:                                               ; preds = %12
  %18 = getelementptr inbounds i8, ptr %0, i64 616
  %19 = load i8, ptr %18, align 8, !alias.scope !4
  %20 = icmp ugt i8 %19, 7
  br i1 %20, label %21, label %23

21:                                               ; preds = %17
  %22 = getelementptr inbounds i8, ptr %0, i64 620
  store i8 2, ptr %22, align 4, !alias.scope !4
  br label %25

23:                                               ; preds = %17
  tail call void @png_app_error(ptr noundef nonnull %0, ptr noundef nonnull @.str) #8
  br label %png_set_filler.exit

24:                                               ; preds = %12
  tail call void @png_app_error(ptr noundef nonnull %0, ptr noundef nonnull @.str.1) #8
  br label %png_set_filler.exit

25:                                               ; preds = %21, %15, %9
  %26 = getelementptr inbounds i8, ptr %0, i64 308
  %27 = load i32, ptr %26, align 4, !alias.scope !4
  %28 = or i32 %27, 32768
  store i32 %28, ptr %26, align 4, !alias.scope !4
  %29 = icmp eq i32 %2, 1
  %30 = getelementptr inbounds i8, ptr %0, i64 304
  %31 = load i32, ptr %30, align 8, !alias.scope !4
  br i1 %29, label %32, label %34

32:                                               ; preds = %25
  %33 = or i32 %31, 128
  store i32 %33, ptr %30, align 8, !alias.scope !4
  br label %png_set_filler.exit

34:                                               ; preds = %25
  %35 = and i32 %31, -129
  store i32 %35, ptr %30, align 8, !alias.scope !4
  br label %png_set_filler.exit

png_set_filler.exit:                              ; preds = %23, %24, %32, %34
  %36 = getelementptr inbounds i8, ptr %0, i64 308
  %37 = load i32, ptr %36, align 4
  %38 = and i32 %37, 32768
  %.not = icmp eq i32 %38, 0
  br i1 %.not, label %41, label %39

39:                                               ; preds = %png_set_filler.exit
  %40 = or i32 %37, 16777216
  store i32 %40, ptr %36, align 4
  br label %41

41:                                               ; preds = %3, %39, %png_set_filler.exit
  ret void
}